target datalayout = "e-m:e-p270:32:32-p271:32:32-p272:64:64-i64:64-i128:128-f80:128-n8:16:32:64-S128"
target triple = "x86_64-pc-linux-gnu"

%"class.icu_77::LoadedNormalizer2Impl" = type { %"class.icu_77::Normalizer2Impl", ptr, ptr }
%"class.icu_77::Normalizer2Impl" = type { %"class.icu_77::UObject", i16, i16, i16, i16, i16, i16, i16, i16, i16, i16, i16, i16, i16, i16, ptr, ptr, ptr, %"struct.icu_77::UInitOnce", ptr }
%"class.icu_77::UObject" = type { ptr }
%"struct.icu_77::UInitOnce" = type { %"struct.std::atomic", i32 }
%"struct.std::atomic" = type { %"struct.std::__atomic_base" }
%"struct.std::__atomic_base" = type { i32 }

@.str = private unnamed_addr constant [4 x i8] c"nrm\00", align 1

; Function Attrs: inlinehint mustprogress nounwind uwtable
define internal noundef signext i8 @_ZL9U_FAILURE10UErrorCode(i32 noundef %0) #5 {
  %2 = alloca i32, align 4
  store i32 %0, ptr %2, align 4, !tbaa !34
  %3 = load i32, ptr %2, align 4, !tbaa !34
  %4 = icmp sgt i32 %3, 0
  %5 = zext i1 %4 to i8
  ret i8 %5
}

; Function Attrs: mustprogress uwtable
define void @_ZN6icu_7721LoadedNormalizer2Impl4loadEPKcS2_R10UErrorCode(ptr noundef nonnull align 8 dereferenceable(96) %0, ptr noundef %1, ptr noundef %2, ptr noundef nonnull align 4 dereferenceable(4) %3) #4 align 2 {
  %5 = alloca ptr, align 8
  %6 = alloca ptr, align 8
  %7 = alloca ptr, align 8
  %8 = alloca ptr, align 8
  %9 = alloca ptr, align 8
  %10 = alloca ptr, align 8
  %11 = alloca i32, align 4
  %12 = alloca i32, align 4
  %13 = alloca i32, align 4
  %14 = alloca i32, align 4
  %15 = alloca ptr, align 8
  %16 = alloca ptr, align 8
  store ptr %0, ptr %5, align 8, !tbaa !3
  store ptr %1, ptr %6, align 8, !tbaa !28
  store ptr %2, ptr %7, align 8, !tbaa !28
  store ptr %3, ptr %8, align 8, !tbaa !27
  %17 = load ptr, ptr %5, align 8
  %18 = load ptr, ptr %8, align 8, !tbaa !27
  %19 = load i32, ptr %18, align 4, !tbaa !34
  %20 = call noundef signext i8 @_ZL9U_FAILURE10UErrorCode(i32 noundef %19)
  %21 = icmp ne i8 %20, 0
  br i1 %21, label %22, label %23

22:                                               ; preds = %4
  br label %91

23:                                               ; preds = %4
  %24 = load ptr, ptr %6, align 8, !tbaa !28
  %25 = load ptr, ptr %7, align 8, !tbaa !28
  %26 = load ptr, ptr %8, align 8, !tbaa !27
  %27 = call ptr @udata_openChoice_77(ptr noundef %24, ptr noundef @.str, ptr noundef %25, ptr noundef @_ZN6icu_7721LoadedNormalizer2Impl12isAcceptableEPvPKcS3_PK9UDataInfo, ptr noundef %17, ptr noundef %26)
  %28 = getelementptr inbounds nuw %"class.icu_77::LoadedNormalizer2Impl", ptr %17, i32 0, i32 1
  store ptr %27, ptr %28, align 8, !tbaa !10
  %29 = load ptr, ptr %8, align 8, !tbaa !27
  %30 = load i32, ptr %29, align 4, !tbaa !34
  %31 = call noundef signext i8 @_ZL9U_FAILURE10UErrorCode(i32 noundef %30)
  %32 = icmp ne i8 %31, 0
  br i1 %32, label %33, label %34

33:                                               ; preds = %23
  br label %91

34:                                               ; preds = %23
  call void @llvm.lifetime.start.p0(i64 8, ptr %9) #12
  %35 = getelementptr inbounds nuw %"class.icu_77::LoadedNormalizer2Impl", ptr %17, i32 0, i32 1
  %36 = load ptr, ptr %35, align 8, !tbaa !10
  %37 = call ptr @udata_getMemory_77(ptr noundef %36)
  store ptr %37, ptr %9, align 8, !tbaa !28
  call void @llvm.lifetime.start.p0(i64 8, ptr %10) #12
  %38 = load ptr, ptr %9, align 8, !tbaa !28
  store ptr %38, ptr %10, align 8, !tbaa !35
  call void @llvm.lifetime.start.p0(i64 4, ptr %11) #12
  %39 = load ptr, ptr %10, align 8, !tbaa !35
  %40 = getelementptr inbounds nuw i32, ptr %39, i64 0
  %41 = load i32, ptr %40, align 4, !tbaa !37
  %42 = sdiv i32 %41, 4
  store i32 %42, ptr %11, align 4, !tbaa !37
  %43 = load i32, ptr %11, align 4, !tbaa !37
  %44 = icmp sle i32 %43, 18
  br i1 %44, label %45, label %47

45:                                               ; preds = %34
  %46 = load ptr, ptr %8, align 8, !tbaa !27
  store i32 3, ptr %46, align 4, !tbaa !34
  store i32 1, ptr %12, align 4
  br label %89

47:                                               ; preds = %34
  call void @llvm.lifetime.start.p0(i64 4, ptr %13) #12
  %48 = load ptr, ptr %10, align 8, !tbaa !35
  %49 = getelementptr inbounds nuw i32, ptr %48, i64 0
  %50 = load i32, ptr %49, align 4, !tbaa !37
  store i32 %50, ptr %13, align 4, !tbaa !37
  call void @llvm.lifetime.start.p0(i64 4, ptr %14) #12
  %51 = load ptr, ptr %10, align 8, !tbaa !35
  %52 = getelementptr inbounds nuw i32, ptr %51, i64 1
  %53 = load i32, ptr %52, align 4, !tbaa !37
  store i32 %53, ptr %14, align 4, !tbaa !37
  %54 = load ptr, ptr %9, align 8, !tbaa !28
  %55 = load i32, ptr %13, align 4, !tbaa !37
  %56 = sext i32 %55 to i64
  %57 = getelementptr inbounds i8, ptr %54, i64 %56
  %58 = load i32, ptr %14, align 4, !tbaa !37
  %59 = load i32, ptr %13, align 4, !tbaa !37
  %60 = sub nsw i32 %58, %59
  %61 = load ptr, ptr %8, align 8, !tbaa !27
  %62 = call ptr @ucptrie_openFromBinary_77(i32 noundef 0, i32 noundef 0, ptr noundef %57, i32 noundef %60, ptr noundef null, ptr noundef %61)
  %63 = getelementptr inbounds nuw %"class.icu_77::LoadedNormalizer2Impl", ptr %17, i32 0, i32 2
  store ptr %62, ptr %63, align 8, !tbaa !26
  %64 = load ptr, ptr %8, align 8, !tbaa !27
  %65 = load i32, ptr %64, align 4, !tbaa !34
  %66 = call noundef signext i8 @_ZL9U_FAILURE10UErrorCode(i32 noundef %65)
  %67 = icmp ne i8 %66, 0
  br i1 %67, label %68, label %69

68:                                               ; preds = %47
  store i32 1, ptr %12, align 4
  br label %88

69:                                               ; preds = %47
  %70 = load i32, ptr %14, align 4, !tbaa !37
  store i32 %70, ptr %13, align 4, !tbaa !37
  %71 = load ptr, ptr %10, align 8, !tbaa !35
  %72 = getelementptr inbounds nuw i32, ptr %71, i64 2
  %73 = load i32, ptr %72, align 4, !tbaa !37
  store i32 %73, ptr %14, align 4, !tbaa !37
  call void @llvm.lifetime.start.p0(i64 8, ptr %15) #12
  %74 = load ptr, ptr %9, align 8, !tbaa !28
  %75 = load i32, ptr %13, align 4, !tbaa !37
  %76 = sext i32 %75 to i64
  %77 = getelementptr inbounds i8, ptr %74, i64 %76
  store ptr %77, ptr %15, align 8, !tbaa !38
  %78 = load i32, ptr %14, align 4, !tbaa !37
  store i32 %78, ptr %13, align 4, !tbaa !37
  call void @llvm.lifetime.start.p0(i64 8, ptr %16) #12
  %79 = load ptr, ptr %9, align 8, !tbaa !28
  %80 = load i32, ptr %13, align 4, !tbaa !37
  %81 = sext i32 %80 to i64
  %82 = getelementptr inbounds i8, ptr %79, i64 %81
  store ptr %82, ptr %16, align 8, !tbaa !28
  %83 = load ptr, ptr %10, align 8, !tbaa !35
  %84 = getelementptr inbounds nuw %"class.icu_77::LoadedNormalizer2Impl", ptr %17, i32 0, i32 2
  %85 = load ptr, ptr %84, align 8, !tbaa !26
  %86 = load ptr, ptr %15, align 8, !tbaa !38
  %87 = load ptr, ptr %16, align 8, !tbaa !28
  call void @_ZN6icu_7715Normalizer2Impl4initEPKiPK7UCPTriePKtPKh(ptr noundef nonnull align 8 dereferenceable(80) %17, ptr noundef %83, ptr noundef %85, ptr noundef %86, ptr noundef %87)
  call void @llvm.lifetime.end.p0(i64 8, ptr %16) #12
  call void @llvm.lifetime.end.p0(i64 8, ptr %15) #12
  store i32 0, ptr %12, align 4
  br label %88

88:                                               ; preds = %69, %68
  call void @llvm.lifetime.end.p0(i64 4, ptr %14) #12
  call void @llvm.lifetime.end.p0(i64 4, ptr %13) #12
  br label %89

89:                                               ; preds = %88, %45
  call void @llvm.lifetime.end.p0(i64 4, ptr %11) #12
  call void @llvm.lifetime.end.p0(i64 8, ptr %10) #12
  call void @llvm.lifetime.end.p0(i64 8, ptr %9) #12
  %90 = load i32, ptr %12, align 4
  switch i32 %90, label %92 [
    i32 0, label %91
    i32 1, label %91
  ]

91:                                               ; preds = %22, %33, %89, %89
  ret void

92:                                               ; preds = %89
  unreachable
}