; Function Attrs: mustprogress uwtable
define void @_ZN6icu_7721LoadedNormalizer2Impl4loadEPKcS2_R10UErrorCode(ptr noundef nonnull align 8 dereferenceable(96) %0, ptr noundef %1, ptr noundef %2, ptr noundef nonnull align 4 dereferenceable(4) %3) local_unnamed_addr #6 align 2 {
  %5 = load i32, ptr %3, align 4, !tbaa !30
  %6 = icmp slt i32 %5, 1
  br i1 %6, label %7, label %34

7:                                                ; preds = %4
  %8 = tail call ptr @udata_openChoice_77(ptr noundef %1, ptr noundef nonnull @.str, ptr noundef %2, ptr noundef nonnull @_ZN6icu_7721LoadedNormalizer2Impl12isAcceptableEPvPKcS3_PK9UDataInfo, ptr noundef nonnull %0, ptr noundef nonnull %3)
  %9 = getelementptr inbounds nuw i8, ptr %0, i64 80
  store ptr %8, ptr %9, align 8, !tbaa !6
  %10 = load i32, ptr %3, align 4, !tbaa !30
  %11 = icmp slt i32 %10, 1
  br i1 %11, label %12, label %34

12:                                               ; preds = %7
  %13 = tail call ptr @udata_getMemory_77(ptr noundef %8)
  %14 = load i32, ptr %13, align 4, !tbaa !31
  %15 = icmp slt i32 %14, 76
  br i1 %15, label %16, label %17

16:                                               ; preds = %12
  store i32 3, ptr %3, align 4, !tbaa !30
  br label %34

17:                                               ; preds = %12
  %18 = getelementptr inbounds nuw i8, ptr %13, i64 4
  %19 = load i32, ptr %18, align 4, !tbaa !31
  %20 = zext nneg i32 %14 to i64
  %21 = getelementptr inbounds nuw i8, ptr %13, i64 %20
  %22 = sub nsw i32 %19, %14
  %23 = tail call ptr @ucptrie_openFromBinary_77(i32 noundef 0, i32 noundef 0, ptr noundef nonnull %21, i32 noundef %22, ptr noundef null, ptr noundef nonnull %3)
  %24 = getelementptr inbounds nuw i8, ptr %0, i64 88
  store ptr %23, ptr %24, align 8, !tbaa !24
  %25 = load i32, ptr %3, align 4, !tbaa !30
  %26 = icmp slt i32 %25, 1
  br i1 %26, label %27, label %34

27:                                               ; preds = %17
  %28 = getelementptr inbounds nuw i8, ptr %13, i64 8
  %29 = load i32, ptr %28, align 4, !tbaa !31
  %30 = sext i32 %19 to i64
  %31 = getelementptr inbounds i8, ptr %13, i64 %30
  %32 = sext i32 %29 to i64
  %33 = getelementptr inbounds i8, ptr %13, i64 %32
  tail call void @_ZN6icu_7715Normalizer2Impl4initEPKiPK7UCPTriePKtPKh(ptr noundef nonnull align 8 dereferenceable(80) %0, ptr noundef nonnull %13, ptr noundef %23, ptr noundef nonnull %31, ptr noundef nonnull %33)
  br label %34

34:                                               ; preds = %16, %17, %27, %7, %4
  ret void
}